target datalayout = "e-m:e-p270:32:32-p271:32:32-p272:64:64-i64:64-i128:128-f80:128-n8:16:32:64-S128"
target triple = "x86_64-pc-linux-gnu"

%struct.stbvox_mesh_maker = type { %struct.stbvox_input_description, i32, i32, i32, i32, i32, i32, i32, i32, i32, i32, i32, i32, i32, i32, [6 x [4 x i32]], [6 x [4 x i32]], i32, i32, i32, i32, [2 x [3 x ptr]], [2 x [3 x ptr]], [2 x [3 x ptr]], [2 x [3 x i32]], [2 x [3 x i32]], [2 x [3 x i32]], i32, [128 x [2 x float]] }
%struct.stbvox_input_description = type { i8, ptr, ptr, ptr, ptr, ptr, ptr, ptr, ptr, ptr, ptr, ptr, ptr, ptr, ptr, ptr, ptr, ptr, ptr, ptr, ptr, ptr, ptr, ptr, ptr, ptr, ptr, ptr, ptr, ptr, ptr, ptr, ptr, ptr, ptr, ptr, ptr, ptr, ptr, ptr, ptr, ptr, ptr }

; Function Attrs: nounwind uwtable
define i32 @stbvox_get_quad_count(ptr noundef %0, i32 noundef %1) #0 {
  %3 = alloca ptr, align 8
  %4 = alloca i32, align 4
  store ptr %0, ptr %3, align 8, !tbaa !20
  store i32 %1, ptr %4, align 4, !tbaa !3
  %5 = load ptr, ptr %3, align 8, !tbaa !20
  %6 = getelementptr inbounds nuw %struct.stbvox_mesh_maker, ptr %5, i32 0, i32 21
  %7 = load i32, ptr %4, align 4, !tbaa !3
  %8 = sext i32 %7 to i64
  %9 = getelementptr inbounds [2 x [3 x ptr]], ptr %6, i64 0, i64 %8
  %10 = getelementptr inbounds [3 x ptr], ptr %9, i64 0, i64 0
  %11 = load ptr, ptr %10, align 8, !tbaa !12
  %12 = load ptr, ptr %3, align 8, !tbaa !20
  %13 = getelementptr inbounds nuw %struct.stbvox_mesh_maker, ptr %12, i32 0, i32 23
  %14 = load i32, ptr %4, align 4, !tbaa !3
  %15 = sext i32 %14 to i64
  %16 = getelementptr inbounds [2 x [3 x ptr]], ptr %13, i64 0, i64 %15
  %17 = getelementptr inbounds [3 x ptr], ptr %16, i64 0, i64 0
  %18 = load ptr, ptr %17, align 8, !tbaa !12
  %19 = ptrtoint ptr %11 to i64
  %20 = ptrtoint ptr %18 to i64
  %21 = sub i64 %19, %20
  %22 = load ptr, ptr %3, align 8, !tbaa !20
  %23 = getelementptr inbounds nuw %struct.stbvox_mesh_maker, ptr %22, i32 0, i32 25
  %24 = load i32, ptr %4, align 4, !tbaa !3
  %25 = sext i32 %24 to i64
  %26 = getelementptr inbounds [2 x [3 x i32]], ptr %23, i64 0, i64 %25
  %27 = getelementptr inbounds [3 x i32], ptr %26, i64 0, i64 0
  %28 = load i32, ptr %27, align 4, !tbaa !3
  %29 = sext i32 %28 to i64
  %30 = sdiv i64 %21, %29
  %31 = trunc i64 %30 to i32
  ret i32 %31
}