; Function Attrs: mustprogress nofree norecurse nosync nounwind willreturn memory(argmem: read) uwtable
define i32 @stbvox_get_quad_count(ptr noundef readonly captures(none) %0, i32 noundef %1) local_unnamed_addr #12 {
  %3 = getelementptr inbounds nuw i8, ptr %0, i64 608
  %4 = sext i32 %1 to i64
  %5 = getelementptr inbounds [2 x [3 x ptr]], ptr %3, i64 0, i64 %4
  %6 = load ptr, ptr %5, align 8, !tbaa !10
  %7 = getelementptr inbounds nuw i8, ptr %0, i64 704
  %8 = getelementptr inbounds [2 x [3 x ptr]], ptr %7, i64 0, i64 %4
  %9 = load ptr, ptr %8, align 8, !tbaa !10
  %10 = ptrtoint ptr %6 to i64
  %11 = ptrtoint ptr %9 to i64
  %12 = sub i64 %10, %11
  %13 = getelementptr inbounds nuw i8, ptr %0, i64 776
  %14 = getelementptr inbounds [2 x [3 x i32]], ptr %13, i64 0, i64 %4
  %15 = load i32, ptr %14, align 4, !tbaa !14
  %16 = sext i32 %15 to i64
  %17 = sdiv i64 %12, %16
  %18 = trunc i64 %17 to i32
  ret i32 %18
}